	.file	"ijk27.c"
	.text
	.comm	x,4,4
	.globl	f
	.type	f, @function
f:
.LFB0:
	.cfi_startproc
	endbr64
	pushq	%rbp
	.cfi_def_cfa_offset 16
	.cfi_offset 6, -16
	movq	%rsp, %rbp
	.cfi_def_cfa_register 6
	movl	%edi, -20(%rbp)
	movl	%esi, -24(%rbp)
	movl	-20(%rbp), %eax
	imull	-24(%rbp), %eax
	movl	%eax, -4(%rbp)
	movl	-4(%rbp), %eax
	popq	%rbp
	.cfi_def_cfa 7, 8
	ret
	.cfi_endproc
.LFE0:
	.size	f, .-f
	.globl	mult
	.type	mult, @function
mult:
.LFB1:
	.cfi_startproc
	endbr64
	pushq	%rbp
	.cfi_def_cfa_offset 16
	.cfi_offset 6, -16
	movq	%rsp, %rbp
	.cfi_def_cfa_register 6
	subq	$48, %rsp
	movl	%edi, -36(%rbp)
	movl	%esi, -40(%rbp)
	movl	%edx, -44(%rbp)
	movl	%ecx, -48(%rbp)
	movl	-36(%rbp), %eax
	movl	%eax, -28(%rbp)
	addl	$1, -28(%rbp)
	movl	-40(%rbp), %eax
	movl	%eax, -24(%rbp)
	addl	$3, -24(%rbp)
	movl	-44(%rbp), %eax
	movl	%eax, -20(%rbp)
	addl	$2, -20(%rbp)
	movl	-48(%rbp), %eax
	movl	%eax, -16(%rbp)
	addl	$4, -16(%rbp)
	movl	-24(%rbp), %edx
	movl	-28(%rbp), %eax
	movl	%edx, %esi
	movl	%eax, %edi
	call	f
	movl	%eax, -12(%rbp)
	movl	-16(%rbp), %edx
	movl	-20(%rbp), %eax
	movl	%edx, %esi
	movl	%eax, %edi
	call	f
	movl	%eax, -8(%rbp)
	movl	-12(%rbp), %edx
	movl	-8(%rbp), %eax
	addl	%edx, %eax
	movl	%eax, -4(%rbp)
	movl	-4(%rbp), %eax
	leave
	.cfi_def_cfa 7, 8
	ret
	.cfi_endproc
.LFE1:
	.size	mult, .-mult
	.globl	main
	.type	main, @function
main:
.LFB2:
	.cfi_startproc
	endbr64
	pushq	%rbp
	.cfi_def_cfa_offset 16
	.cfi_offset 6, -16
	movq	%rsp, %rbp
	.cfi_def_cfa_register 6
	subq	$16, %rsp
	movl	$7, -8(%rbp)
	movl	$3, -4(%rbp)
	movl	-4(%rbp), %ecx
	movl	-4(%rbp), %edx
	movl	-8(%rbp), %esi
	movl	-8(%rbp), %eax
	movl	%eax, %edi
	call	mult
	movl	%eax, x(%rip)
	movl	x(%rip), %eax
	leave
	.cfi_def_cfa 7, 8
	ret
	.cfi_endproc
.LFE2:
	.size	main, .-main
	.ident	"GCC: (Ubuntu 9.3.0-17ubuntu1~20.04) 9.3.0"
	.section	.note.GNU-stack,"",@progbits
	.section	.note.gnu.property,"a"
	.align 8
	.long	 1f - 0f
	.long	 4f - 1f
	.long	 5
0:
	.string	 "GNU"
1:
	.align 8
	.long	 0xc0000002
	.long	 3f - 2f
2:
	.long	 0x3
3:
	.align 8
4:
